((lp0
(I0
(dp1
S'name'
p2
S'Gen 0'
p3
sS'power'
p4
F1.0
sS'coord'
p5
(lp6
F-0.1
aF0.0
asS'damping'
p7
F0.5
sS'sm'
p8
I01
sS'inertia'
p9
I1
stp10
a(I1
(dp11
g2
S'Gen 1'
p12
sg4
F0.5
sg5
(lp13
F0.1
aF0.0
asg7
F0.5
sg8
I01
sg9
I1
stp14
a(I2
(dp15
g2
S'Load 2'
p16
sg4
F-1.2
sg5
(lp17
F-0.2
aF0.1
asg7
F0.5
sg8
I01
sg9
I1
stp18
a(I3
(dp19
g2
S'Load 3'
p20
sg4
F-0.3
sg5
(lp21
F0.2
aF0.1
asg7
F0.5
sg8
I01
sg9
I1
stp22
a(I4
(dp23
g2
S'Load 4'
p24
sg4
F-0.5
sg5
(lp25
F-0.1
aF0.2
asg7
F0.5
sg8
I01
sg9
I1
stp26
a(I5
(dp27
g2
S'Gen 5'
p28
sg4
F0.5
sg5
(lp29
F0.1
aF0.2
asg7
F0.5
sg8
I01
sg9
I1
stp30
a(lp31
(I0
I1
(dp32
S'status'
p33
I01
sS'susceptance'
p34
F1.0
stp35
a(I0
I2
(dp36
g33
I01
sg34
F1.0
stp37
a(I0
I3
(dp38
g33
I01
sg34
F1.0
stp39
a(I0
I4
(dp40
g33
I01
sg34
F1.0
stp41
a(I0
I5
(dp42
g33
I01
sg34
F1.0
stp43
a(I1
I2
(dp44
g33
I01
sg34
F1.0
stp45
a(I1
I3
(dp46
g33
I01
sg34
F1.0
stp47
a(I1
I4
(dp48
g33
I01
sg34
F1.0
stp49
a(I1
I5
(dp50
g33
I01
sg34
F1.0
stp51
a(I2
I3
(dp52
g33
I01
sg34
F1.0
stp53
a(I2
I4
(dp54
g33
I01
sg34
F1.0
stp55
a(I2
I5
(dp56
g33
I01
sg34
F1.0
stp57
a(I3
I4
(dp58
g33
I01
sg34
F1.0
stp59
a(I3
I5
(dp60
g33
I01
sg34
F1.0
stp61
a(I4
I5
(dp62
g33
I01
sg34
F1.0
stp63
atp64
.