((lp0
(I0
(dp1
S'power'
p2
F-0.5
sS'sm'
p3
I00
sS'name'
p4
S'Load 0'
p5
sS'coord'
p6
(lp7
F0.0
aF0.0
asS'damping'
p8
F0.5
stp9
a(I1
(dp10
g4
S'Gen 1'
p11
sg2
F1.0
sg6
(lp12
F0.1
aF0.1
asg8
F0.5
sg3
I01
sS'inertia'
p13
I1
stp14
a(I2
(dp15
g4
S'Gen 2'
p16
sg2
F-0.5
sg6
(lp17
F0.15
aF0.0
asg8
F0.5
sg3
I01
sg13
I1
stp18
a(I3
(dp19
g2
F-1.0
sg3
I00
sg4
S'Load 3'
p20
sg6
(lp21
F0.1
aF-0.1
asg8
I1
stp22
a(I4
(dp23
g2
F1.0
sg3
I00
sg4
S'Load 4'
p24
sg6
(lp25
F0.2
aF-0.1
asg8
F0.75
stp26
a(I5
(dp27
g2
F-2.0
sg3
I00
sg4
S'Load 5'
p28
sg6
(lp29
F0.1
aF0.3
asg8
I1
stp30
a(I6
(dp31
g4
S'Gen 6'
p32
sg2
F1.0
sg6
(lp33
F0.3
aF0.0
asg8
F0.75
sg3
I01
sg13
F0.6
stp34
a(I7
(dp35
g2
F-0.5
sg3
I00
sg4
S'Load 7'
p36
sg6
(lp37
F-0.05
aF0.07
asg8
I1
stp38
a(I8
(dp39
g2
F-0.5
sg3
I00
sg4
S'Load 8'
p40
sg6
(lp41
F0.0
aF0.2
asg8
F0.75
stp42
a(I9
(dp43
g4
S'Gen 9'
p44
sg2
F2.5
sg6
(lp45
F0.0
aF0.3
asg8
F0.5
sg3
I01
sg13
F0.7
stp46
a(I10
(dp47
g2
F-0.5
sg3
I00
sg4
S'Load 10'
p48
sg6
(lp49
F0.0
aF0.35
asg8
F0.6
stp50
a(lp51
(I0
I1
(dp52
S'status'
p53
I01
sS'susceptance'
p54
F2.0
stp55
a(I0
I2
(dp56
g53
I01
sg54
F1.0
stp57
a(I0
I3
(dp58
g53
I01
sg54
F7.0
stp59
a(I1
I2
(dp60
g53
I01
sg54
F3.0
stp61
a(I2
I3
(dp62
g53
I01
sg54
F4.0
stp63
a(I3
I4
(dp64
g53
I01
sg54
F3.0
stp65
a(I1
I5
(dp66
g53
I01
sg54
F3.5
stp67
a(I2
I6
(dp68
g53
I01
sg54
F4.0
stp69
a(I5
I6
(dp70
g53
I01
sg54
F2.0
stp71
a(I0
I7
(dp72
g53
I01
sg54
F4.3
stp73
a(I7
I8
(dp74
g53
I01
sg54
F3.0
stp75
a(I1
I8
(dp76
g53
I01
sg54
F2.0
stp77
a(I8
I9
(dp78
g53
I01
sg54
F4.0
stp79
a(I9
I10
(dp80
g53
I01
sg54
F3.0
stp81
atp82
.