((lp0
(I0
(dp1
S'name'
p2
S'Load 0'
p3
sS'power'
p4
F-1.05
sS'coord'
p5
(lp6
F-0.1
aF0.0
asS'damping'
p7
F0.5
sS'sm'
p8
I01
sS'inertia'
p9
I1
stp10
a(I1
(dp11
g2
S'Gen 1'
p12
sg4
F2.1
sg5
(lp13
F0.0
aF0.2
asg7
F0.5
sg8
I01
sg9
I1
stp14
a(I2
(dp15
g2
S'Load 2'
p16
sg4
F-1.05
sg5
(lp17
F0.1
aF0.0
asg7
F0.5
sg8
I01
sg9
I1
stp18
a(lp19
(I0
I1
(dp20
S'status'
p21
I01
sS'susceptance'
p22
F3.0
stp23
a(I1
I2
(dp24
g21
I01
sg22
F3.0
stp25
atp26
.